target datalayout = "e-m:e-p270:32:32-p271:32:32-p272:64:64-i64:64-i128:128-f80:128-n8:16:32:64-S128"
target triple = "x86_64-pc-linux-gnu"

%"struct.std::atomic" = type { %"struct.std::__atomic_base" }
%"struct.std::__atomic_base" = type { i32 }
%"class.absl::once_flag" = type { %"struct.std::atomic" }

@_ZN4absl13base_internal12_GLOBAL__N_121default_arena_storageE = internal global [328 x i8] zeroinitializer, align 8
@_ZN4absl13base_internal12_GLOBAL__N_119create_globals_onceE = internal global { { i32 } } zeroinitializer, align 4
@_ZN4absl13base_internal12_GLOBAL__N_122unhooked_arena_storageE = internal global [328 x i8] zeroinitializer, align 8
@_ZN4absl13base_internal12_GLOBAL__N_137unhooked_async_sig_safe_arena_storageE = internal global [328 x i8] zeroinitializer, align 8
@_ZN4absl13base_internal13LowLevelAlloc5ArenaC1Ej = dso_local unnamed_addr alias void (ptr, i32), ptr @_ZN4absl13base_internal13LowLevelAlloc5ArenaC2Ej

; Function Attrs: noinline noreturn nounwind uwtable
define linkonce_odr hidden void @__clang_call_terminate(ptr noundef %0) #13 comdat {
  %2 = call ptr @__cxa_begin_catch(ptr %0) #14
  call void @_ZSt9terminatev() #16
  unreachable
}

; Function Attrs: mustprogress nounwind uwtable
define linkonce_odr dso_local noundef i32 @_ZStanSt12memory_orderSt23__memory_order_modifier(i32 noundef %0, i32 noundef %1) #2 comdat {
  %3 = alloca i32, align 4
  %4 = alloca i32, align 4
  store i32 %0, ptr %3, align 4, !tbaa !63
  store i32 %1, ptr %4, align 4, !tbaa !65
  %5 = load i32, ptr %3, align 4, !tbaa !63
  %6 = load i32, ptr %4, align 4, !tbaa !65
  %7 = and i32 %5, %6
  ret i32 %7
}

; Function Attrs: alwaysinline mustprogress nounwind uwtable
define linkonce_odr dso_local noundef i32 @_ZNKSt13__atomic_baseIjE4loadESt12memory_order(ptr noundef nonnull align 4 dereferenceable(4) %0, i32 noundef %1) #12 comdat align 2 personality ptr @__gxx_personality_v0 {
  %3 = alloca ptr, align 8
  %4 = alloca i32, align 4
  %5 = alloca i32, align 4
  %6 = alloca i32, align 4
  store ptr %0, ptr %3, align 8, !tbaa !61
  store i32 %1, ptr %4, align 4, !tbaa !63
  %7 = load ptr, ptr %3, align 8
  call void @llvm.lifetime.start.p0(i64 4, ptr %5) #14
  %8 = load i32, ptr %4, align 4, !tbaa !63
  %9 = invoke noundef i32 @_ZStanSt12memory_orderSt23__memory_order_modifier(i32 noundef %8, i32 noundef 65535)
          to label %10 unwind label %27

10:                                               ; preds = %2
  store i32 %9, ptr %5, align 4, !tbaa !63
  br label %11

11:                                               ; preds = %10
  br label %12

12:                                               ; preds = %11
  br label %13

13:                                               ; preds = %12
  br label %14

14:                                               ; preds = %13
  br label %15

15:                                               ; preds = %14
  br label %16

16:                                               ; preds = %15
  %17 = getelementptr inbounds nuw %"struct.std::__atomic_base", ptr %7, i32 0, i32 0
  %18 = load i32, ptr %4, align 4, !tbaa !63
  switch i32 %18, label %19 [
    i32 1, label %21
    i32 2, label %21
    i32 5, label %23
  ]

19:                                               ; preds = %16
  %20 = load atomic i32, ptr %17 monotonic, align 4
  store i32 %20, ptr %6, align 4
  br label %25

21:                                               ; preds = %16, %16
  %22 = load atomic i32, ptr %17 acquire, align 4
  store i32 %22, ptr %6, align 4
  br label %25

23:                                               ; preds = %16
  %24 = load atomic i32, ptr %17 seq_cst, align 4
  store i32 %24, ptr %6, align 4
  br label %25

25:                                               ; preds = %23, %21, %19
  %26 = load i32, ptr %6, align 4, !tbaa !12
  call void @llvm.lifetime.end.p0(i64 4, ptr %5) #14
  ret i32 %26

27:                                               ; preds = %2
  %28 = landingpad { ptr, i32 }
          catch ptr null
  %29 = extractvalue { ptr, i32 } %28, 0
  call void @__clang_call_terminate(ptr %29) #16
  unreachable
}

; Function Attrs: inlinehint mustprogress nounwind uwtable
define linkonce_odr dso_local noundef ptr @_ZN4absl13base_internal11ControlWordEPNS_9once_flagE(ptr noundef %0) #3 comdat {
  %2 = alloca ptr, align 8
  store ptr %0, ptr %2, align 8, !tbaa !4
  %3 = load ptr, ptr %2, align 8, !tbaa !4
  %4 = getelementptr inbounds nuw %"class.absl::once_flag", ptr %3, i32 0, i32 0
  ret ptr %4
}

; Function Attrs: mustprogress uwtable
define linkonce_odr dso_local void @_ZN4absl13base_internal16LowLevelCallOnceIRFvvEJEEEvPNS_9once_flagEOT_DpOT0_(ptr noundef %0, ptr noundef nonnull %1) #0 comdat {
  %3 = alloca ptr, align 8
  %4 = alloca ptr, align 8
  %5 = alloca ptr, align 8
  %6 = alloca i32, align 4
  store ptr %0, ptr %3, align 8, !tbaa !4
  store ptr %1, ptr %4, align 8, !tbaa !9
  call void @llvm.lifetime.start.p0(i64 8, ptr %5) #14
  %7 = load ptr, ptr %3, align 8, !tbaa !4
  %8 = call noundef ptr @_ZN4absl13base_internal11ControlWordEPNS_9once_flagE(ptr noundef %7)
  store ptr %8, ptr %5, align 8, !tbaa !10
  call void @llvm.lifetime.start.p0(i64 4, ptr %6) #14
  %9 = load ptr, ptr %5, align 8, !tbaa !10
  %10 = call noundef i32 @_ZNKSt13__atomic_baseIjE4loadESt12memory_order(ptr noundef nonnull align 4 dereferenceable(4) %9, i32 noundef 2) #14
  store i32 %10, ptr %6, align 4, !tbaa !12
  %11 = load i32, ptr %6, align 4, !tbaa !12
  %12 = icmp ne i32 %11, 221
  %13 = zext i1 %12 to i64
  %14 = call i64 @llvm.expect.i64(i64 %13, i64 0)
  %15 = icmp ne i64 %14, 0
  br i1 %15, label %16, label %19

16:                                               ; preds = %2
  %17 = load ptr, ptr %5, align 8, !tbaa !10
  %18 = load ptr, ptr %4, align 8, !tbaa !9
  call void @_ZN4absl13base_internal12CallOnceImplIRFvvEJEEEvPSt6atomicIjENS0_14SchedulingModeEOT_DpOT0_(ptr noundef %17, i32 noundef 0, ptr noundef nonnull %18)
  br label %19

19:                                               ; preds = %16, %2
  call void @llvm.lifetime.end.p0(i64 4, ptr %6) #14
  call void @llvm.lifetime.end.p0(i64 8, ptr %5) #14
  ret void
}

; Function Attrs: mustprogress uwtable
define internal noundef ptr @_ZN4absl13base_internal12_GLOBAL__N_113UnhookedArenaEv() #0 {
  call void @_ZN4absl13base_internal16LowLevelCallOnceIRFvvEJEEEvPNS_9once_flagEOT_DpOT0_(ptr noundef @_ZN4absl13base_internal12_GLOBAL__N_119create_globals_onceE, ptr noundef nonnull @_ZN4absl13base_internal12_GLOBAL__N_118CreateGlobalArenasEv)
  ret ptr @_ZN4absl13base_internal12_GLOBAL__N_122unhooked_arena_storageE
}

; Function Attrs: mustprogress uwtable
define internal noundef ptr @_ZN4absl13base_internal12_GLOBAL__N_125UnhookedAsyncSigSafeArenaEv() #0 {
  call void @_ZN4absl13base_internal16LowLevelCallOnceIRFvvEJEEEvPNS_9once_flagEOT_DpOT0_(ptr noundef @_ZN4absl13base_internal12_GLOBAL__N_119create_globals_onceE, ptr noundef nonnull @_ZN4absl13base_internal12_GLOBAL__N_118CreateGlobalArenasEv)
  ret ptr @_ZN4absl13base_internal12_GLOBAL__N_137unhooked_async_sig_safe_arena_storageE
}

; Function Attrs: mustprogress uwtable
define dso_local noundef ptr @_ZN4absl13base_internal13LowLevelAlloc12DefaultArenaEv() #0 align 2 {
  call void @_ZN4absl13base_internal16LowLevelCallOnceIRFvvEJEEEvPNS_9once_flagEOT_DpOT0_(ptr noundef @_ZN4absl13base_internal12_GLOBAL__N_119create_globals_onceE, ptr noundef nonnull @_ZN4absl13base_internal12_GLOBAL__N_118CreateGlobalArenasEv)
  ret ptr @_ZN4absl13base_internal12_GLOBAL__N_121default_arena_storageE
}

; Function Attrs: mustprogress uwtable
define dso_local noundef ptr @_ZN4absl13base_internal13LowLevelAlloc8NewArenaEj(i32 noundef %0) #0 align 2 {
  %2 = alloca i32, align 4
  %3 = alloca ptr, align 8
  %4 = alloca ptr, align 8
  store i32 %0, ptr %2, align 4, !tbaa !12
  call void @llvm.lifetime.start.p0(i64 8, ptr %3) #14
  %5 = call noundef ptr @_ZN4absl13base_internal13LowLevelAlloc12DefaultArenaEv()
  store ptr %5, ptr %3, align 8, !tbaa !14
  %6 = load i32, ptr %2, align 4, !tbaa !12
  %7 = and i32 %6, 2
  %8 = icmp ne i32 %7, 0
  br i1 %8, label %9, label %11

9:                                                ; preds = %1
  %10 = call noundef ptr @_ZN4absl13base_internal12_GLOBAL__N_125UnhookedAsyncSigSafeArenaEv()
  store ptr %10, ptr %3, align 8, !tbaa !14
  br label %18

11:                                               ; preds = %1
  %12 = load i32, ptr %2, align 4, !tbaa !12
  %13 = and i32 %12, 1
  %14 = icmp eq i32 %13, 0
  br i1 %14, label %15, label %17

15:                                               ; preds = %11
  %16 = call noundef ptr @_ZN4absl13base_internal12_GLOBAL__N_113UnhookedArenaEv()
  store ptr %16, ptr %3, align 8, !tbaa !14
  br label %17

17:                                               ; preds = %15, %11
  br label %18

18:                                               ; preds = %17, %9
  call void @llvm.lifetime.start.p0(i64 8, ptr %4) #14
  %19 = load ptr, ptr %3, align 8, !tbaa !14
  %20 = call noundef ptr @_ZN4absl13base_internal13LowLevelAlloc14AllocWithArenaEmPNS1_5ArenaE(i64 noundef 328, ptr noundef %19)
  %21 = load i32, ptr %2, align 4, !tbaa !12
  call void @_ZN4absl13base_internal13LowLevelAlloc5ArenaC1Ej(ptr noundef nonnull align 8 dereferenceable(324) %20, i32 noundef %21)
  store ptr %20, ptr %4, align 8, !tbaa !14
  %22 = load ptr, ptr %4, align 8, !tbaa !14
  call void @llvm.lifetime.end.p0(i64 8, ptr %4) #14
  call void @llvm.lifetime.end.p0(i64 8, ptr %3) #14
  ret ptr %22
}