; Function Attrs: mustprogress uwtable
define dso_local noundef ptr @_ZN4absl13base_internal13LowLevelAlloc8NewArenaEj(i32 noundef %0) local_unnamed_addr #0 align 2 personality ptr @__gxx_personality_v0 {
  %2 = load atomic i32, ptr @_ZN4absl13base_internal12_GLOBAL__N_119create_globals_onceE acquire, align 4
  %.not.i.i = icmp eq i32 %2, 221
  br i1 %.not.i.i, label %_ZN4absl13base_internal13LowLevelAlloc12DefaultArenaEv.exit, label %3, !prof !4

3:                                                ; preds = %1
  tail call void @_ZN4absl13base_internal12CallOnceImplIRFvvEJEEEvPSt6atomicIjENS0_14SchedulingModeEOT_DpOT0_(ptr noundef nonnull @_ZN4absl13base_internal12_GLOBAL__N_119create_globals_onceE, i32 noundef 0, ptr noundef nonnull @_ZN4absl13base_internal12_GLOBAL__N_118CreateGlobalArenasEv)
  br label %_ZN4absl13base_internal13LowLevelAlloc12DefaultArenaEv.exit

_ZN4absl13base_internal13LowLevelAlloc12DefaultArenaEv.exit: ; preds = %1, %3
  %4 = and i32 %0, 2
  %.not = icmp eq i32 %4, 0
  br i1 %.not, label %7, label %5

5:                                                ; preds = %_ZN4absl13base_internal13LowLevelAlloc12DefaultArenaEv.exit
  %6 = load atomic i32, ptr @_ZN4absl13base_internal12_GLOBAL__N_119create_globals_onceE acquire, align 4
  %.not.i.i4 = icmp eq i32 %6, 221
  br i1 %.not.i.i4, label %_ZN4absl13base_internal12_GLOBAL__N_125UnhookedAsyncSigSafeArenaEv.exit, label %_ZN4absl13base_internal12_GLOBAL__N_125UnhookedAsyncSigSafeArenaEv.exit.sink.split, !prof !4

7:                                                ; preds = %_ZN4absl13base_internal13LowLevelAlloc12DefaultArenaEv.exit
  %8 = and i32 %0, 1
  %9 = icmp eq i32 %8, 0
  br i1 %9, label %10, label %_ZN4absl13base_internal12_GLOBAL__N_125UnhookedAsyncSigSafeArenaEv.exit

10:                                               ; preds = %7
  %11 = load atomic i32, ptr @_ZN4absl13base_internal12_GLOBAL__N_119create_globals_onceE acquire, align 4
  %.not.i.i5 = icmp eq i32 %11, 221
  br i1 %.not.i.i5, label %_ZN4absl13base_internal12_GLOBAL__N_125UnhookedAsyncSigSafeArenaEv.exit, label %_ZN4absl13base_internal12_GLOBAL__N_125UnhookedAsyncSigSafeArenaEv.exit.sink.split, !prof !4

_ZN4absl13base_internal12_GLOBAL__N_125UnhookedAsyncSigSafeArenaEv.exit.sink.split: ; preds = %10, %5
  %.0.ph = phi ptr [ @_ZN4absl13base_internal12_GLOBAL__N_137unhooked_async_sig_safe_arena_storageE, %5 ], [ @_ZN4absl13base_internal12_GLOBAL__N_122unhooked_arena_storageE, %10 ]
  tail call void @_ZN4absl13base_internal12CallOnceImplIRFvvEJEEEvPSt6atomicIjENS0_14SchedulingModeEOT_DpOT0_(ptr noundef nonnull @_ZN4absl13base_internal12_GLOBAL__N_119create_globals_onceE, i32 noundef 0, ptr noundef nonnull @_ZN4absl13base_internal12_GLOBAL__N_118CreateGlobalArenasEv)
  br label %_ZN4absl13base_internal12_GLOBAL__N_125UnhookedAsyncSigSafeArenaEv.exit

_ZN4absl13base_internal12_GLOBAL__N_125UnhookedAsyncSigSafeArenaEv.exit: ; preds = %_ZN4absl13base_internal12_GLOBAL__N_125UnhookedAsyncSigSafeArenaEv.exit.sink.split, %10, %5, %7
  %.0 = phi ptr [ @_ZN4absl13base_internal12_GLOBAL__N_121default_arena_storageE, %7 ], [ @_ZN4absl13base_internal12_GLOBAL__N_137unhooked_async_sig_safe_arena_storageE, %5 ], [ @_ZN4absl13base_internal12_GLOBAL__N_122unhooked_arena_storageE, %10 ], [ %.0.ph, %_ZN4absl13base_internal12_GLOBAL__N_125UnhookedAsyncSigSafeArenaEv.exit.sink.split ]
  %12 = tail call noundef ptr @_ZN4absl13base_internal13LowLevelAlloc14AllocWithArenaEmPNS1_5ArenaE(i64 noundef 328, ptr noundef nonnull %.0)
  tail call void @_ZN4absl13base_internal8SpinLockC1ENS0_14SchedulingModeE(ptr noundef nonnull align 8 dereferenceable(324) %12, i32 noundef 0)
  %13 = getelementptr inbounds nuw i8, ptr %12, i64 288
  store i32 0, ptr %13, align 8, !tbaa !5
  %14 = getelementptr inbounds nuw i8, ptr %12, i64 292
  store i32 %0, ptr %14, align 4, !tbaa !18
  %15 = getelementptr inbounds nuw i8, ptr %12, i64 296
  %16 = tail call noundef i64 @sysconf(i32 noundef 30) #12
  store i64 %16, ptr %15, align 8, !tbaa !19
  %17 = getelementptr inbounds nuw i8, ptr %12, i64 304
  store i64 32, ptr %17, align 8, !tbaa !20
  %18 = getelementptr inbounds nuw i8, ptr %12, i64 312
  store i64 64, ptr %18, align 8, !tbaa !21
  %19 = getelementptr inbounds nuw i8, ptr %12, i64 320
  store i32 0, ptr %19, align 8, !tbaa !22
  %20 = getelementptr inbounds nuw i8, ptr %12, i64 8
  store i64 0, ptr %20, align 8, !tbaa !23
  %21 = ptrtoint ptr %20 to i64
  %22 = xor i64 %21, -1283669654
  %23 = getelementptr inbounds nuw i8, ptr %12, i64 16
  store i64 %22, ptr %23, align 8, !tbaa !24
  %24 = getelementptr inbounds nuw i8, ptr %12, i64 24
  store ptr %12, ptr %24, align 8, !tbaa !25
  %25 = getelementptr inbounds nuw i8, ptr %12, i64 40
  store i32 0, ptr %25, align 8, !tbaa !26
  %26 = getelementptr inbounds nuw i8, ptr %12, i64 48
  tail call void @llvm.memset.p0.i64(ptr noundef nonnull align 8 dereferenceable(240) %26, i8 0, i64 240, i1 false)
  ret ptr %12
}